target datalayout = "e-m:e-p270:32:32-p271:32:32-p272:64:64-i64:64-i128:128-f80:128-n8:16:32:64-S128"
target triple = "x86_64-pc-linux-gnu"

%struct._ir_insn = type { %struct.anon, %union.anon.6 }
%struct.anon = type { %union.anon.0, %union.anon.5 }
%union.anon.0 = type { i32 }
%union.anon.5 = type { i32 }
%union.anon.6 = type { %union._ir_val }
%union._ir_val = type { double }
%struct._ir_ctx = type { ptr, i32, i32, i32, i32, i32, i32, i32, i32, i32, i32, %struct._ir_insn, ptr, ptr, ptr, i32, i32, i32, ptr, ptr, ptr, ptr, ptr, i32, i32, i64, i32, i32, i32, i64, i32, i32, i32, i32, ptr, ptr, ptr, ptr, ptr, ptr, %union.anon.14, ptr, i32, i32, i32, i64, i32, i32, i32, ptr, ptr, ptr, ptr, %struct._ir_strtab, [61 x i32], [14 x i32] }
%union.anon.14 = type { ptr }
%struct._ir_strtab = type { ptr, i32, i32, i32, i32, ptr, i32, i32 }
%struct._ir_backend_data = type { %struct._ir_reg_alloc_data, i32, ptr, ptr, i32, i32, i8, i8, i8, i8, i8 }
%struct._ir_reg_alloc_data = type { i32, i32, i32, ptr }

@_ir_int_reg_params = internal constant [6 x i8] c"\07\06\02\01\08\09", align 1
@_ir_fp_reg_params = internal constant [8 x i8] c"\10\11\12\13\14\15\16\17", align 1

; Function Attrs: nounwind uwtable
define internal void @ir_emit_prologue(ptr noundef %0) #0 {
  %2 = alloca ptr, align 8
  %3 = alloca ptr, align 8
  %4 = alloca ptr, align 8
  %5 = alloca i8, align 1
  %6 = alloca i32, align 4
  %7 = alloca i32, align 4
  %8 = alloca i32, align 4
  %9 = alloca ptr, align 8
  %10 = alloca ptr, align 8
  %11 = alloca i32, align 4
  %12 = alloca i8, align 1
  %13 = alloca i32, align 4
  store ptr %0, ptr %2, align 8
  %14 = load ptr, ptr %2, align 8
  %15 = getelementptr inbounds %struct._ir_ctx, ptr %14, i32 0, i32 40
  %16 = load ptr, ptr %15, align 8
  store ptr %16, ptr %3, align 8
  %17 = load ptr, ptr %3, align 8
  %18 = getelementptr inbounds %struct._ir_backend_data, ptr %17, i32 0, i32 2
  store ptr %18, ptr %4, align 8
  %19 = load ptr, ptr %2, align 8
  %20 = getelementptr inbounds %struct._ir_ctx, ptr %19, i32 0, i32 5
  %21 = load i32, ptr %20, align 8
  %22 = and i32 %21, 512
  %23 = icmp ne i32 %22, 0
  br i1 %23, label %24, label %26

24:                                               ; preds = %1
  %25 = load ptr, ptr %4, align 8
  call void (ptr, i32, ...) @dasm_put(ptr noundef %25, i32 noundef 2239, i32 noundef 5, i32 noundef 4, i32 noundef 5)
  br label %26

26:                                               ; preds = %24, %1
  %27 = load ptr, ptr %2, align 8
  %28 = getelementptr inbounds %struct._ir_ctx, ptr %27, i32 0, i32 43
  %29 = load i32, ptr %28, align 4
  %30 = load ptr, ptr %2, align 8
  %31 = getelementptr inbounds %struct._ir_ctx, ptr %30, i32 0, i32 44
  %32 = load i32, ptr %31, align 8
  %33 = add nsw i32 %29, %32
  %34 = icmp ne i32 %33, 0
  br i1 %34, label %35, label %51

35:                                               ; preds = %26
  %36 = load ptr, ptr %2, align 8
  %37 = getelementptr inbounds %struct._ir_ctx, ptr %36, i32 0, i32 26
  %38 = load i32, ptr %37, align 8
  %39 = icmp ne i32 %38, 0
  br i1 %39, label %40, label %41

40:                                               ; preds = %35
  br label %50

41:                                               ; preds = %35
  %42 = load ptr, ptr %4, align 8
  %43 = load ptr, ptr %2, align 8
  %44 = getelementptr inbounds %struct._ir_ctx, ptr %43, i32 0, i32 43
  %45 = load i32, ptr %44, align 4
  %46 = load ptr, ptr %2, align 8
  %47 = getelementptr inbounds %struct._ir_ctx, ptr %46, i32 0, i32 44
  %48 = load i32, ptr %47, align 8
  %49 = add nsw i32 %45, %48
  call void (ptr, i32, ...) @dasm_put(ptr noundef %42, i32 noundef 2251, i32 noundef 4, i32 noundef %49)
  br label %50

50:                                               ; preds = %41, %40
  br label %51

51:                                               ; preds = %50, %26
  %52 = load ptr, ptr %2, align 8
  %53 = getelementptr inbounds %struct._ir_ctx, ptr %52, i32 0, i32 45
  %54 = load i64, ptr %53, align 8
  %55 = icmp ne i64 %54, 0
  br i1 %55, label %56, label %129

56:                                               ; preds = %51
  %57 = load ptr, ptr %2, align 8
  %58 = getelementptr inbounds %struct._ir_ctx, ptr %57, i32 0, i32 45
  %59 = load i64, ptr %58, align 8
  %60 = trunc i64 %59 to i32
  store i32 %60, ptr %8, align 4
  %61 = load ptr, ptr %2, align 8
  %62 = getelementptr inbounds %struct._ir_ctx, ptr %61, i32 0, i32 5
  %63 = load i32, ptr %62, align 8
  %64 = and i32 %63, 512
  %65 = icmp ne i32 %64, 0
  br i1 %65, label %66, label %67

66:                                               ; preds = %56
  store i8 5, ptr %5, align 1
  store i32 0, ptr %6, align 4
  br label %75

67:                                               ; preds = %56
  store i8 4, ptr %5, align 1
  %68 = load ptr, ptr %2, align 8
  %69 = getelementptr inbounds %struct._ir_ctx, ptr %68, i32 0, i32 43
  %70 = load i32, ptr %69, align 4
  %71 = load ptr, ptr %2, align 8
  %72 = getelementptr inbounds %struct._ir_ctx, ptr %71, i32 0, i32 44
  %73 = load i32, ptr %72, align 8
  %74 = add nsw i32 %70, %73
  store i32 %74, ptr %6, align 4
  br label %75

75:                                               ; preds = %67, %66
  store i32 0, ptr %7, align 4
  br label %76

76:                                               ; preds = %125, %75
  %77 = load i32, ptr %7, align 4
  %78 = icmp ult i32 %77, 32
  br i1 %78, label %79, label %128

79:                                               ; preds = %76
  %80 = load i32, ptr %8, align 4
  %81 = load i32, ptr %7, align 4
  %82 = shl i32 1, %81
  %83 = and i32 %80, %82
  %84 = icmp ne i32 %83, 0
  br i1 %84, label %85, label %124

85:                                               ; preds = %79
  %86 = load i32, ptr %7, align 4
  %87 = icmp ult i32 %86, 16
  br i1 %87, label %88, label %98

88:                                               ; preds = %85
  %89 = load i32, ptr %6, align 4
  %90 = sext i32 %89 to i64
  %91 = sub i64 %90, 8
  %92 = trunc i64 %91 to i32
  store i32 %92, ptr %6, align 4
  %93 = load ptr, ptr %4, align 8
  %94 = load i32, ptr %7, align 4
  %95 = load i8, ptr %5, align 1
  %96 = sext i8 %95 to i32
  %97 = load i32, ptr %6, align 4
  call void (ptr, i32, ...) @dasm_put(ptr noundef %93, i32 noundef 991, i32 noundef %94, i32 noundef %96, i32 noundef %97)
  br label %123

98:                                               ; preds = %85
  %99 = load i32, ptr %6, align 4
  %100 = sext i32 %99 to i64
  %101 = sub i64 %100, 8
  %102 = trunc i64 %101 to i32
  store i32 %102, ptr %6, align 4
  %103 = load ptr, ptr %2, align 8
  %104 = getelementptr inbounds %struct._ir_ctx, ptr %103, i32 0, i32 8
  %105 = load i32, ptr %104, align 4
  %106 = and i32 %105, 32
  %107 = icmp ne i32 %106, 0
  br i1 %107, label %108, label %115

108:                                              ; preds = %98
  %109 = load ptr, ptr %4, align 8
  %110 = load i32, ptr %7, align 4
  %111 = sub i32 %110, 16
  %112 = load i8, ptr %5, align 1
  %113 = sext i8 %112 to i32
  %114 = load i32, ptr %6, align 4
  call void (ptr, i32, ...) @dasm_put(ptr noundef %109, i32 noundef 1297, i32 noundef %111, i32 noundef %113, i32 noundef %114)
  br label %122

115:                                              ; preds = %98
  %116 = load ptr, ptr %4, align 8
  %117 = load i32, ptr %7, align 4
  %118 = sub i32 %117, 16
  %119 = load i8, ptr %5, align 1
  %120 = sext i8 %119 to i32
  %121 = load i32, ptr %6, align 4
  call void (ptr, i32, ...) @dasm_put(ptr noundef %116, i32 noundef 1310, i32 noundef %118, i32 noundef %120, i32 noundef %121)
  br label %122

122:                                              ; preds = %115, %108
  br label %123

123:                                              ; preds = %122, %88
  br label %124

124:                                              ; preds = %123, %79
  br label %125

125:                                              ; preds = %124
  %126 = load i32, ptr %7, align 4
  %127 = add i32 %126, 1
  store i32 %127, ptr %7, align 4
  br label %76

128:                                              ; preds = %76
  br label %129

129:                                              ; preds = %128, %51
  %130 = load ptr, ptr %2, align 8
  %131 = getelementptr inbounds %struct._ir_ctx, ptr %130, i32 0, i32 5
  %132 = load i32, ptr %131, align 8
  %133 = and i32 %132, 4
  %134 = icmp ne i32 %133, 0
  br i1 %134, label %135, label %259

135:                                              ; preds = %129
  %136 = load ptr, ptr %2, align 8
  %137 = getelementptr inbounds %struct._ir_ctx, ptr %136, i32 0, i32 6
  %138 = load i32, ptr %137, align 4
  %139 = and i32 %138, 64
  %140 = icmp ne i32 %139, 0
  br i1 %140, label %141, label %259

141:                                              ; preds = %135
  store ptr @_ir_int_reg_params, ptr %9, align 8
  store ptr @_ir_fp_reg_params, ptr %10, align 8
  %142 = load ptr, ptr %2, align 8
  %143 = getelementptr inbounds %struct._ir_ctx, ptr %142, i32 0, i32 5
  %144 = load i32, ptr %143, align 8
  %145 = and i32 %144, 512
  %146 = icmp ne i32 %145, 0
  br i1 %146, label %147, label %160

147:                                              ; preds = %141
  store i8 5, ptr %12, align 1
  %148 = load ptr, ptr %2, align 8
  %149 = getelementptr inbounds %struct._ir_ctx, ptr %148, i32 0, i32 43
  %150 = load i32, ptr %149, align 4
  %151 = load ptr, ptr %2, align 8
  %152 = getelementptr inbounds %struct._ir_ctx, ptr %151, i32 0, i32 42
  %153 = load i32, ptr %152, align 8
  %154 = sub nsw i32 %150, %153
  %155 = load ptr, ptr %2, align 8
  %156 = getelementptr inbounds %struct._ir_ctx, ptr %155, i32 0, i32 30
  %157 = load i32, ptr %156, align 8
  %158 = sub i32 %154, %157
  %159 = sub i32 0, %158
  store i32 %159, ptr %13, align 4
  br label %168

160:                                              ; preds = %141
  store i8 4, ptr %12, align 1
  %161 = load ptr, ptr %2, align 8
  %162 = getelementptr inbounds %struct._ir_ctx, ptr %161, i32 0, i32 30
  %163 = load i32, ptr %162, align 8
  %164 = load ptr, ptr %2, align 8
  %165 = getelementptr inbounds %struct._ir_ctx, ptr %164, i32 0, i32 44
  %166 = load i32, ptr %165, align 8
  %167 = add i32 %163, %166
  store i32 %167, ptr %13, align 4
  br label %168

168:                                              ; preds = %160, %147
  %169 = load ptr, ptr %2, align 8
  %170 = getelementptr inbounds %struct._ir_ctx, ptr %169, i32 0, i32 6
  %171 = load i32, ptr %170, align 4
  %172 = and i32 %171, 384
  %173 = icmp ne i32 %172, 0
  br i1 %173, label %174, label %214

174:                                              ; preds = %168
  %175 = load ptr, ptr %2, align 8
  %176 = getelementptr inbounds %struct._ir_ctx, ptr %175, i32 0, i32 31
  %177 = load i32, ptr %176, align 4
  %178 = icmp ult i32 %177, 6
  br i1 %178, label %179, label %214

179:                                              ; preds = %174
  %180 = load ptr, ptr %2, align 8
  %181 = getelementptr inbounds %struct._ir_ctx, ptr %180, i32 0, i32 31
  %182 = load i32, ptr %181, align 4
  %183 = zext i32 %182 to i64
  %184 = mul i64 8, %183
  %185 = load i32, ptr %13, align 4
  %186 = sext i32 %185 to i64
  %187 = add i64 %186, %184
  %188 = trunc i64 %187 to i32
  store i32 %188, ptr %13, align 4
  %189 = load ptr, ptr %2, align 8
  %190 = getelementptr inbounds %struct._ir_ctx, ptr %189, i32 0, i32 31
  %191 = load i32, ptr %190, align 4
  store i32 %191, ptr %11, align 4
  br label %192

192:                                              ; preds = %210, %179
  %193 = load i32, ptr %11, align 4
  %194 = icmp ult i32 %193, 6
  br i1 %194, label %195, label %213

195:                                              ; preds = %192
  %196 = load ptr, ptr %4, align 8
  %197 = load ptr, ptr %9, align 8
  %198 = load i32, ptr %11, align 4
  %199 = zext i32 %198 to i64
  %200 = getelementptr inbounds i8, ptr %197, i64 %199
  %201 = load i8, ptr %200, align 1
  %202 = sext i8 %201 to i32
  %203 = load i8, ptr %12, align 1
  %204 = sext i8 %203 to i32
  %205 = load i32, ptr %13, align 4
  call void (ptr, i32, ...) @dasm_put(ptr noundef %196, i32 noundef 991, i32 noundef %202, i32 noundef %204, i32 noundef %205)
  %206 = load i32, ptr %13, align 4
  %207 = sext i32 %206 to i64
  %208 = add i64 %207, 8
  %209 = trunc i64 %208 to i32
  store i32 %209, ptr %13, align 4
  br label %210

210:                                              ; preds = %195
  %211 = load i32, ptr %11, align 4
  %212 = add i32 %211, 1
  store i32 %212, ptr %11, align 4
  br label %192

213:                                              ; preds = %192
  br label %214

214:                                              ; preds = %213, %174, %168
  %215 = load ptr, ptr %2, align 8
  %216 = getelementptr inbounds %struct._ir_ctx, ptr %215, i32 0, i32 6
  %217 = load i32, ptr %216, align 4
  %218 = and i32 %217, 640
  %219 = icmp ne i32 %218, 0
  br i1 %219, label %220, label %258

220:                                              ; preds = %214
  %221 = load ptr, ptr %2, align 8
  %222 = getelementptr inbounds %struct._ir_ctx, ptr %221, i32 0, i32 32
  %223 = load i32, ptr %222, align 8
  %224 = icmp ult i32 %223, 8
  br i1 %224, label %225, label %258

225:                                              ; preds = %220
  %226 = load ptr, ptr %4, align 8
  call void (ptr, i32, ...) @dasm_put(ptr noundef %226, i32 noundef 2295)
  %227 = load ptr, ptr %2, align 8
  %228 = getelementptr inbounds %struct._ir_ctx, ptr %227, i32 0, i32 32
  %229 = load i32, ptr %228, align 8
  %230 = mul i32 16, %229
  %231 = load i32, ptr %13, align 4
  %232 = add i32 %231, %230
  store i32 %232, ptr %13, align 4
  %233 = load ptr, ptr %2, align 8
  %234 = getelementptr inbounds %struct._ir_ctx, ptr %233, i32 0, i32 32
  %235 = load i32, ptr %234, align 8
  store i32 %235, ptr %11, align 4
  br label %236

236:                                              ; preds = %253, %225
  %237 = load i32, ptr %11, align 4
  %238 = icmp ult i32 %237, 8
  br i1 %238, label %239, label %256

239:                                              ; preds = %236
  %240 = load ptr, ptr %4, align 8
  %241 = load ptr, ptr %10, align 8
  %242 = load i32, ptr %11, align 4
  %243 = zext i32 %242 to i64
  %244 = getelementptr inbounds i8, ptr %241, i64 %243
  %245 = load i8, ptr %244, align 1
  %246 = sext i8 %245 to i32
  %247 = sub nsw i32 %246, 16
  %248 = load i8, ptr %12, align 1
  %249 = sext i8 %248 to i32
  %250 = load i32, ptr %13, align 4
  call void (ptr, i32, ...) @dasm_put(ptr noundef %240, i32 noundef 2302, i32 noundef %247, i32 noundef %249, i32 noundef %250)
  %251 = load i32, ptr %13, align 4
  %252 = add nsw i32 %251, 16
  store i32 %252, ptr %13, align 4
  br label %253

253:                                              ; preds = %239
  %254 = load i32, ptr %11, align 4
  %255 = add i32 %254, 1
  store i32 %255, ptr %11, align 4
  br label %236

256:                                              ; preds = %236
  %257 = load ptr, ptr %4, align 8
  call void (ptr, i32, ...) @dasm_put(ptr noundef %257, i32 noundef 2313)
  br label %258

258:                                              ; preds = %256, %220, %214
  br label %259

259:                                              ; preds = %258, %135, %129
  ret void
}