; Function Attrs: nounwind uwtable
define internal fastcc void @ir_emit_prologue(ptr nocapture noundef readonly %0) unnamed_addr #1 {
  %2 = getelementptr inbounds i8, ptr %0, i64 248
  %3 = load ptr, ptr %2, align 8
  %4 = getelementptr inbounds i8, ptr %3, i64 32
  %5 = getelementptr inbounds i8, ptr %0, i64 24
  %6 = load i32, ptr %5, align 8
  %7 = and i32 %6, 512
  %.not = icmp eq i32 %7, 0
  br i1 %.not, label %9, label %8

8:                                                ; preds = %1
  tail call void (ptr, i32, ...) @dasm_put(ptr noundef nonnull %4, i32 noundef 2239, i32 noundef 5, i32 noundef 4, i32 noundef 5)
  br label %9

9:                                                ; preds = %8, %1
  %10 = getelementptr inbounds i8, ptr %0, i64 268
  %11 = load i32, ptr %10, align 4
  %12 = getelementptr inbounds i8, ptr %0, i64 272
  %13 = load i32, ptr %12, align 8
  %14 = add nsw i32 %13, %11
  %.not81 = icmp eq i32 %14, 0
  br i1 %.not81, label %19, label %15

15:                                               ; preds = %9
  %16 = getelementptr inbounds i8, ptr %0, i64 160
  %17 = load i32, ptr %16, align 8
  %.not82 = icmp eq i32 %17, 0
  br i1 %.not82, label %18, label %19

18:                                               ; preds = %15
  tail call void (ptr, i32, ...) @dasm_put(ptr noundef nonnull %4, i32 noundef 2251, i32 noundef 4, i32 noundef %14)
  br label %19

19:                                               ; preds = %18, %15, %9
  %20 = getelementptr inbounds i8, ptr %0, i64 280
  %21 = load i64, ptr %20, align 8
  %.not83 = icmp eq i64 %21, 0
  %.pre107 = load i32, ptr %5, align 8
  br i1 %.not83, label %.loopexit93, label %22

22:                                               ; preds = %19
  %23 = trunc i64 %21 to i32
  %24 = and i32 %.pre107, 512
  %.not84 = icmp eq i32 %24, 0
  br i1 %.not84, label %25, label %29

25:                                               ; preds = %22
  %26 = load i32, ptr %10, align 4
  %27 = load i32, ptr %12, align 8
  %28 = add nsw i32 %27, %26
  br label %29

29:                                               ; preds = %22, %25
  %.074 = phi i32 [ %28, %25 ], [ 0, %22 ]
  %.073 = phi i32 [ 4, %25 ], [ 5, %22 ]
  %30 = getelementptr inbounds i8, ptr %0, i64 36
  br label %31

31:                                               ; preds = %29, %44
  %.17595 = phi i32 [ %.074, %29 ], [ %.276, %44 ]
  %.07794 = phi i32 [ 0, %29 ], [ %45, %44 ]
  %32 = shl nuw i32 1, %.07794
  %33 = and i32 %32, %23
  %.not90 = icmp eq i32 %33, 0
  br i1 %.not90, label %44, label %34

34:                                               ; preds = %31
  %35 = icmp ult i32 %.07794, 16
  %36 = add i32 %.17595, -8
  br i1 %35, label %37, label %38

37:                                               ; preds = %34
  tail call void (ptr, i32, ...) @dasm_put(ptr noundef nonnull %4, i32 noundef 991, i32 noundef %.07794, i32 noundef %.073, i32 noundef %36)
  br label %44

38:                                               ; preds = %34
  %39 = load i32, ptr %30, align 4
  %40 = and i32 %39, 32
  %.not91 = icmp eq i32 %40, 0
  %41 = add nsw i32 %.07794, -16
  br i1 %.not91, label %43, label %42

42:                                               ; preds = %38
  tail call void (ptr, i32, ...) @dasm_put(ptr noundef nonnull %4, i32 noundef 1297, i32 noundef %41, i32 noundef %.073, i32 noundef %36)
  br label %44

43:                                               ; preds = %38
  tail call void (ptr, i32, ...) @dasm_put(ptr noundef nonnull %4, i32 noundef 1310, i32 noundef %41, i32 noundef %.073, i32 noundef %36)
  br label %44

44:                                               ; preds = %31, %42, %43, %37
  %.276 = phi i32 [ %36, %37 ], [ %36, %42 ], [ %36, %43 ], [ %.17595, %31 ]
  %45 = add nuw nsw i32 %.07794, 1
  %exitcond.not = icmp eq i32 %45, 32
  br i1 %exitcond.not, label %.loopexit93.loopexit, label %31

.loopexit93.loopexit:                             ; preds = %44
  %.pre = load i32, ptr %5, align 8
  br label %.loopexit93

.loopexit93:                                      ; preds = %.loopexit93.loopexit, %19
  %46 = phi i32 [ %.pre, %.loopexit93.loopexit ], [ %.pre107, %19 ]
  %47 = and i32 %46, 4
  %.not85 = icmp eq i32 %47, 0
  br i1 %.not85, label %100, label %48

48:                                               ; preds = %.loopexit93
  %49 = getelementptr inbounds i8, ptr %0, i64 28
  %50 = load i32, ptr %49, align 4
  %51 = and i32 %50, 64
  %.not86 = icmp eq i32 %51, 0
  br i1 %.not86, label %100, label %52

52:                                               ; preds = %48
  %53 = and i32 %46, 512
  %.not87 = icmp eq i32 %53, 0
  br i1 %.not87, label %61, label %54

54:                                               ; preds = %52
  %55 = load i32, ptr %10, align 4
  %56 = getelementptr inbounds i8, ptr %0, i64 264
  %57 = load i32, ptr %56, align 8
  %58 = getelementptr inbounds i8, ptr %0, i64 184
  %59 = load i32, ptr %58, align 8
  %60 = sub i32 %57, %55
  %.neg = add i32 %60, %59
  br label %66

61:                                               ; preds = %52
  %62 = getelementptr inbounds i8, ptr %0, i64 184
  %63 = load i32, ptr %62, align 8
  %64 = load i32, ptr %12, align 8
  %65 = add i32 %64, %63
  br label %66

66:                                               ; preds = %61, %54
  %.070 = phi i32 [ 5, %54 ], [ 4, %61 ]
  %.0 = phi i32 [ %.neg, %54 ], [ %65, %61 ]
  %67 = and i32 %50, 384
  %.not88 = icmp eq i32 %67, 0
  br i1 %.not88, label %.loopexit, label %68

68:                                               ; preds = %66
  %69 = getelementptr inbounds i8, ptr %0, i64 188
  %70 = load i32, ptr %69, align 4
  %71 = icmp ult i32 %70, 6
  br i1 %71, label %72, label %.loopexit

72:                                               ; preds = %68
  %73 = shl nuw nsw i32 %70, 3
  %74 = add i32 %73, %.0
  %75 = zext nneg i32 %70 to i64
  br label %76

76:                                               ; preds = %72, %76
  %indvars.iv = phi i64 [ %75, %72 ], [ %indvars.iv.next, %76 ]
  %.197 = phi i32 [ %74, %72 ], [ %80, %76 ]
  %77 = getelementptr inbounds i8, ptr @_ir_int_reg_params, i64 %indvars.iv
  %78 = load i8, ptr %77, align 1
  %79 = sext i8 %78 to i32
  tail call void (ptr, i32, ...) @dasm_put(ptr noundef nonnull %4, i32 noundef 991, i32 noundef %79, i32 noundef %.070, i32 noundef %.197)
  %80 = add i32 %.197, 8
  %indvars.iv.next = add nuw nsw i64 %indvars.iv, 1
  %81 = and i64 %indvars.iv.next, 4294967295
  %exitcond101.not = icmp eq i64 %81, 6
  br i1 %exitcond101.not, label %.loopexit.loopexit, label %76

.loopexit.loopexit:                               ; preds = %76
  %.pre108 = load i32, ptr %49, align 4
  br label %.loopexit

.loopexit:                                        ; preds = %.loopexit.loopexit, %68, %66
  %82 = phi i32 [ %50, %68 ], [ %50, %66 ], [ %.pre108, %.loopexit.loopexit ]
  %.2 = phi i32 [ %.0, %68 ], [ %.0, %66 ], [ %80, %.loopexit.loopexit ]
  %83 = and i32 %82, 640
  %.not89 = icmp eq i32 %83, 0
  br i1 %.not89, label %100, label %84

84:                                               ; preds = %.loopexit
  %85 = getelementptr inbounds i8, ptr %0, i64 192
  %86 = load i32, ptr %85, align 8
  %87 = icmp ult i32 %86, 8
  br i1 %87, label %88, label %100

88:                                               ; preds = %84
  tail call void (ptr, i32, ...) @dasm_put(ptr noundef nonnull %4, i32 noundef 2295)
  %89 = load i32, ptr %85, align 8
  %90 = icmp ult i32 %89, 8
  br i1 %90, label %.lr.ph.preheader, label %._crit_edge

.lr.ph.preheader:                                 ; preds = %88
  %91 = shl nuw nsw i32 %89, 4
  %92 = add i32 %91, %.2
  %93 = zext nneg i32 %89 to i64
  br label %.lr.ph

.lr.ph:                                           ; preds = %.lr.ph.preheader, %.lr.ph
  %indvars.iv102 = phi i64 [ %93, %.lr.ph.preheader ], [ %indvars.iv.next103, %.lr.ph ]
  %.399 = phi i32 [ %92, %.lr.ph.preheader ], [ %98, %.lr.ph ]
  %94 = getelementptr inbounds i8, ptr @_ir_fp_reg_params, i64 %indvars.iv102
  %95 = load i8, ptr %94, align 1
  %96 = sext i8 %95 to i32
  %97 = add nsw i32 %96, -16
  tail call void (ptr, i32, ...) @dasm_put(ptr noundef nonnull %4, i32 noundef 2302, i32 noundef %97, i32 noundef %.070, i32 noundef %.399)
  %98 = add nsw i32 %.399, 16
  %indvars.iv.next103 = add nuw nsw i64 %indvars.iv102, 1
  %99 = and i64 %indvars.iv.next103, 4294967295
  %exitcond106.not = icmp eq i64 %99, 8
  br i1 %exitcond106.not, label %._crit_edge, label %.lr.ph

._crit_edge:                                      ; preds = %.lr.ph, %88
  tail call void (ptr, i32, ...) @dasm_put(ptr noundef nonnull %4, i32 noundef 2313)
  br label %100

100:                                              ; preds = %.loopexit, %84, %._crit_edge, %48, %.loopexit93
  ret void
}